target datalayout = "e-m:e-p270:32:32-p271:32:32-p272:64:64-i64:64-i128:128-f80:128-n8:16:32:64-S128"
target triple = "x86_64-pc-linux-gnu"

%struct.H5FL_reg_head_t = type { i8, i32, i32, ptr, i64, ptr }
%struct.H5C_cache_entry_t = type { ptr, i64, i64, ptr, i8, ptr, i8, i8, i8, i8, i32, i8, i8, i8, i8, i8, i32, ptr, i32, i32, i32, i32, i32, i8, i8, ptr, ptr, ptr, ptr, ptr, ptr, i8, i32, i8, i64, ptr, i64, i64, i32, i8, i32, i32, i8, ptr, ptr, ptr }
%struct.H5FS_sinfo_t = type { %struct.H5C_cache_entry_t, ptr, i8, i32, i64, i64, i64, i64, i32, i32, i32, ptr, ptr }
%struct.H5FS_section_class_t = type { i32, i64, i32, ptr, ptr, ptr, ptr, ptr, ptr, ptr, ptr, ptr, ptr, ptr, ptr, ptr, ptr }
%struct.H5FS_bin_t = type { i64, i64, i64, ptr }
%struct.H5FS_node_t = type { i64, i64, i64, ptr }

@H5_H5FS_node_t_reg_free_list = global %struct.H5FL_reg_head_t { i8 0, i32 0, i32 0, ptr @.str, i64 32, ptr null }, align 8
@.str.3 = private unnamed_addr constant [105 x i8] c"generated/home/dtcxzyw/WorkSpace/Projects/compilers/llvm-opt-benchmark/bench/hdf5/hdf5/src/H5FSsection.c\00", align 1
@H5E_FSPACE_g = external global i64, align 8
@H5E_CANTREMOVE_g = external global i64, align 8
@__func__.H5FS__size_node_decr = private unnamed_addr constant [21 x i8] c"H5FS__size_node_decr\00", align 1
@.str.40 = private unnamed_addr constant [44 x i8] c"can't remove free space node from skip list\00", align 1
@H5E_CANTCLOSEOBJ_g = external global i64, align 8
@.str.41 = private unnamed_addr constant [45 x i8] c"can't destroy size tracking node's skip list\00", align 1

; Function Attrs: nounwind uwtable
define internal i32 @H5FS__size_node_decr(ptr noundef %0, i32 noundef %1, ptr noundef %2, ptr noundef %3) #0 {
  %5 = alloca ptr, align 8
  %6 = alloca i32, align 4
  %7 = alloca ptr, align 8
  %8 = alloca ptr, align 8
  %9 = alloca i32, align 4
  %10 = alloca i8, align 1
  %11 = alloca ptr, align 8
  store ptr %0, ptr %5, align 8
  store i32 %1, ptr %6, align 4
  store ptr %2, ptr %7, align 8
  store ptr %3, ptr %8, align 8
  store i32 0, ptr %9, align 4
  store i8 0, ptr %10, align 1
  %12 = load ptr, ptr %5, align 8
  %13 = getelementptr inbounds %struct.H5FS_sinfo_t, ptr %12, i32 0, i32 1
  %14 = load ptr, ptr %13, align 8
  %15 = load i32, ptr %6, align 4
  %16 = zext i32 %15 to i64
  %17 = getelementptr inbounds %struct.H5FS_bin_t, ptr %14, i64 %16
  %18 = getelementptr inbounds %struct.H5FS_bin_t, ptr %17, i32 0, i32 0
  %19 = load i64, ptr %18, align 8
  %20 = add i64 %19, -1
  store i64 %20, ptr %18, align 8
  %21 = load ptr, ptr %8, align 8
  %22 = getelementptr inbounds %struct.H5FS_section_class_t, ptr %21, i32 0, i32 2
  %23 = load i32, ptr %22, align 8
  %24 = and i32 %23, 1
  %25 = icmp ne i32 %24, 0
  br i1 %25, label %26, label %50

26:                                               ; preds = %4
  %27 = load ptr, ptr %7, align 8
  %28 = getelementptr inbounds %struct.H5FS_node_t, ptr %27, i32 0, i32 2
  %29 = load i64, ptr %28, align 8
  %30 = add i64 %29, -1
  store i64 %30, ptr %28, align 8
  %31 = load ptr, ptr %5, align 8
  %32 = getelementptr inbounds %struct.H5FS_sinfo_t, ptr %31, i32 0, i32 1
  %33 = load ptr, ptr %32, align 8
  %34 = load i32, ptr %6, align 4
  %35 = zext i32 %34 to i64
  %36 = getelementptr inbounds %struct.H5FS_bin_t, ptr %33, i64 %35
  %37 = getelementptr inbounds %struct.H5FS_bin_t, ptr %36, i32 0, i32 2
  %38 = load i64, ptr %37, align 8
  %39 = add i64 %38, -1
  store i64 %39, ptr %37, align 8
  %40 = load ptr, ptr %7, align 8
  %41 = getelementptr inbounds %struct.H5FS_node_t, ptr %40, i32 0, i32 2
  %42 = load i64, ptr %41, align 8
  %43 = icmp eq i64 %42, 0
  br i1 %43, label %44, label %49

44:                                               ; preds = %26
  %45 = load ptr, ptr %5, align 8
  %46 = getelementptr inbounds %struct.H5FS_sinfo_t, ptr %45, i32 0, i32 7
  %47 = load i64, ptr %46, align 8
  %48 = add i64 %47, -1
  store i64 %48, ptr %46, align 8
  br label %49

49:                                               ; preds = %44, %26
  br label %74

50:                                               ; preds = %4
  %51 = load ptr, ptr %7, align 8
  %52 = getelementptr inbounds %struct.H5FS_node_t, ptr %51, i32 0, i32 1
  %53 = load i64, ptr %52, align 8
  %54 = add i64 %53, -1
  store i64 %54, ptr %52, align 8
  %55 = load ptr, ptr %5, align 8
  %56 = getelementptr inbounds %struct.H5FS_sinfo_t, ptr %55, i32 0, i32 1
  %57 = load ptr, ptr %56, align 8
  %58 = load i32, ptr %6, align 4
  %59 = zext i32 %58 to i64
  %60 = getelementptr inbounds %struct.H5FS_bin_t, ptr %57, i64 %59
  %61 = getelementptr inbounds %struct.H5FS_bin_t, ptr %60, i32 0, i32 1
  %62 = load i64, ptr %61, align 8
  %63 = add i64 %62, -1
  store i64 %63, ptr %61, align 8
  %64 = load ptr, ptr %7, align 8
  %65 = getelementptr inbounds %struct.H5FS_node_t, ptr %64, i32 0, i32 1
  %66 = load i64, ptr %65, align 8
  %67 = icmp eq i64 %66, 0
  br i1 %67, label %68, label %73

68:                                               ; preds = %50
  %69 = load ptr, ptr %5, align 8
  %70 = getelementptr inbounds %struct.H5FS_sinfo_t, ptr %69, i32 0, i32 6
  %71 = load i64, ptr %70, align 8
  %72 = add i64 %71, -1
  store i64 %72, ptr %70, align 8
  br label %73

73:                                               ; preds = %68, %50
  br label %74

74:                                               ; preds = %73, %49
  %75 = load ptr, ptr %7, align 8
  %76 = getelementptr inbounds %struct.H5FS_node_t, ptr %75, i32 0, i32 3
  %77 = load ptr, ptr %76, align 8
  %78 = call i64 @H5SL_count(ptr noundef %77)
  %79 = icmp eq i64 %78, 0
  br i1 %79, label %80, label %141

80:                                               ; preds = %74
  %81 = load ptr, ptr %5, align 8
  %82 = getelementptr inbounds %struct.H5FS_sinfo_t, ptr %81, i32 0, i32 1
  %83 = load ptr, ptr %82, align 8
  %84 = load i32, ptr %6, align 4
  %85 = zext i32 %84 to i64
  %86 = getelementptr inbounds %struct.H5FS_bin_t, ptr %83, i64 %85
  %87 = getelementptr inbounds %struct.H5FS_bin_t, ptr %86, i32 0, i32 3
  %88 = load ptr, ptr %87, align 8
  %89 = load ptr, ptr %7, align 8
  %90 = getelementptr inbounds %struct.H5FS_node_t, ptr %89, i32 0, i32 0
  %91 = call ptr @H5SL_remove(ptr noundef %88, ptr noundef %90)
  store ptr %91, ptr %11, align 8
  %92 = load ptr, ptr %11, align 8
  %93 = icmp eq ptr %92, null
  br i1 %93, label %98, label %94

94:                                               ; preds = %80
  %95 = load ptr, ptr %11, align 8
  %96 = load ptr, ptr %7, align 8
  %97 = icmp ne ptr %95, %96
  br i1 %97, label %98, label %113

98:                                               ; preds = %94, %80
  br label %99

99:                                               ; preds = %98
  br label %100

100:                                              ; preds = %99
  br label %101

101:                                              ; preds = %100
  %102 = load i64, ptr @H5E_FSPACE_g, align 8
  %103 = load i64, ptr @H5E_CANTREMOVE_g, align 8
  %104 = call i32 (ptr, ptr, i32, i64, i64, ptr, ...) @H5E_printf_stack(ptr noundef @.str.3, ptr noundef @__func__.H5FS__size_node_decr, i32 noundef 719, i64 noundef %102, i64 noundef %103, ptr noundef @.str.40)
  br label %105

105:                                              ; preds = %101
  store i8 1, ptr %10, align 1
  %106 = load i8, ptr %10, align 1
  %107 = trunc i8 %106 to i1
  %108 = zext i1 %107 to i8
  store i8 %108, ptr %10, align 1
  br label %109

109:                                              ; preds = %105
  br label %110

110:                                              ; preds = %109
  store i32 -1, ptr %9, align 4
  br label %142

111:                                              ; No predecessors!
  br label %112

112:                                              ; preds = %111
  br label %113

113:                                              ; preds = %112, %94
  %114 = load ptr, ptr %7, align 8
  %115 = getelementptr inbounds %struct.H5FS_node_t, ptr %114, i32 0, i32 3
  %116 = load ptr, ptr %115, align 8
  %117 = call i32 @H5SL_close(ptr noundef %116)
  %118 = icmp slt i32 %117, 0
  br i1 %118, label %119, label %134

119:                                              ; preds = %113
  br label %120

120:                                              ; preds = %119
  br label %121

121:                                              ; preds = %120
  br label %122

122:                                              ; preds = %121
  %123 = load i64, ptr @H5E_FSPACE_g, align 8
  %124 = load i64, ptr @H5E_CANTCLOSEOBJ_g, align 8
  %125 = call i32 (ptr, ptr, i32, i64, i64, ptr, ...) @H5E_printf_stack(ptr noundef @.str.3, ptr noundef @__func__.H5FS__size_node_decr, i32 noundef 723, i64 noundef %123, i64 noundef %124, ptr noundef @.str.41)
  br label %126

126:                                              ; preds = %122
  store i8 1, ptr %10, align 1
  %127 = load i8, ptr %10, align 1
  %128 = trunc i8 %127 to i1
  %129 = zext i1 %128 to i8
  store i8 %129, ptr %10, align 1
  br label %130

130:                                              ; preds = %126
  br label %131

131:                                              ; preds = %130
  store i32 -1, ptr %9, align 4
  br label %142

132:                                              ; No predecessors!
  br label %133

133:                                              ; preds = %132
  br label %134

134:                                              ; preds = %133, %113
  %135 = load ptr, ptr %7, align 8
  %136 = call ptr @H5FL_reg_free(ptr noundef @H5_H5FS_node_t_reg_free_list, ptr noundef %135)
  store ptr %136, ptr %7, align 8
  %137 = load ptr, ptr %5, align 8
  %138 = getelementptr inbounds %struct.H5FS_sinfo_t, ptr %137, i32 0, i32 5
  %139 = load i64, ptr %138, align 8
  %140 = add i64 %139, -1
  store i64 %140, ptr %138, align 8
  br label %141

141:                                              ; preds = %134, %74
  br label %142

142:                                              ; preds = %141, %131, %110
  %143 = load i32, ptr %9, align 4
  ret i32 %143
}