; Function Attrs: nounwind uwtable
define internal fastcc range(i32 -1, 1) i32 @H5FS__size_node_decr(ptr nocapture noundef %0, i32 noundef %1, ptr noundef %2, ptr nocapture noundef readonly %3) unnamed_addr #0 {
  %5 = getelementptr inbounds i8, ptr %0, i64 248
  %6 = load ptr, ptr %5, align 8
  %7 = zext i32 %1 to i64
  %8 = getelementptr inbounds %struct.H5FS_bin_t, ptr %6, i64 %7
  %9 = load i64, ptr %8, align 8
  %10 = add i64 %9, -1
  store i64 %10, ptr %8, align 8
  %11 = getelementptr inbounds i8, ptr %3, i64 16
  %12 = load i32, ptr %11, align 8
  %13 = and i32 %12, 1
  %.not = icmp eq i32 %13, 0
  br i1 %.not, label %24, label %14

14:                                               ; preds = %4
  %15 = getelementptr inbounds i8, ptr %2, i64 16
  %16 = load i64, ptr %15, align 8
  %17 = add i64 %16, -1
  store i64 %17, ptr %15, align 8
  %18 = load ptr, ptr %5, align 8
  %19 = getelementptr inbounds %struct.H5FS_bin_t, ptr %18, i64 %7, i32 2
  %20 = load i64, ptr %19, align 8
  %21 = add i64 %20, -1
  store i64 %21, ptr %19, align 8
  %22 = load i64, ptr %15, align 8
  %23 = icmp eq i64 %22, 0
  br i1 %23, label %.sink.split, label %37

24:                                               ; preds = %4
  %25 = getelementptr inbounds i8, ptr %2, i64 8
  %26 = load i64, ptr %25, align 8
  %27 = add i64 %26, -1
  store i64 %27, ptr %25, align 8
  %28 = load ptr, ptr %5, align 8
  %29 = getelementptr inbounds %struct.H5FS_bin_t, ptr %28, i64 %7, i32 1
  %30 = load i64, ptr %29, align 8
  %31 = add i64 %30, -1
  store i64 %31, ptr %29, align 8
  %32 = load i64, ptr %25, align 8
  %33 = icmp eq i64 %32, 0
  br i1 %33, label %.sink.split, label %37

.sink.split:                                      ; preds = %24, %14
  %.sink30 = phi i64 [ 288, %14 ], [ 280, %24 ]
  %34 = getelementptr inbounds i8, ptr %0, i64 %.sink30
  %35 = load i64, ptr %34, align 8
  %36 = add i64 %35, -1
  store i64 %36, ptr %34, align 8
  br label %37

37:                                               ; preds = %.sink.split, %24, %14
  %38 = getelementptr inbounds i8, ptr %2, i64 24
  %39 = load ptr, ptr %38, align 8
  %40 = tail call i64 @H5SL_count(ptr noundef %39) #6
  %41 = icmp eq i64 %40, 0
  br i1 %41, label %42, label %65

42:                                               ; preds = %37
  %43 = load ptr, ptr %5, align 8
  %44 = getelementptr inbounds %struct.H5FS_bin_t, ptr %43, i64 %7, i32 3
  %45 = load ptr, ptr %44, align 8
  %46 = tail call ptr @H5SL_remove(ptr noundef %45, ptr noundef nonnull %2) #6
  %47 = icmp ne ptr %46, null
  %.not27 = icmp eq ptr %46, %2
  %or.cond = and i1 %47, %.not27
  br i1 %or.cond, label %52, label %48

48:                                               ; preds = %42
  %49 = load i64, ptr @H5E_FSPACE_g, align 8
  %50 = load i64, ptr @H5E_CANTREMOVE_g, align 8
  %51 = tail call i32 (ptr, ptr, i32, i64, i64, ptr, ...) @H5E_printf_stack(ptr noundef nonnull @.str.3, ptr noundef nonnull @__func__.H5FS__size_node_decr, i32 noundef 719, i64 noundef %49, i64 noundef %50, ptr noundef nonnull @.str.40) #6
  br label %65

52:                                               ; preds = %42
  %53 = load ptr, ptr %38, align 8
  %54 = tail call i32 @H5SL_close(ptr noundef %53) #6
  %55 = icmp slt i32 %54, 0
  br i1 %55, label %56, label %60

56:                                               ; preds = %52
  %57 = load i64, ptr @H5E_FSPACE_g, align 8
  %58 = load i64, ptr @H5E_CANTCLOSEOBJ_g, align 8
  %59 = tail call i32 (ptr, ptr, i32, i64, i64, ptr, ...) @H5E_printf_stack(ptr noundef nonnull @.str.3, ptr noundef nonnull @__func__.H5FS__size_node_decr, i32 noundef 723, i64 noundef %57, i64 noundef %58, ptr noundef nonnull @.str.41) #6
  br label %65

60:                                               ; preds = %52
  %61 = tail call ptr @H5FL_reg_free(ptr noundef nonnull @H5_H5FS_node_t_reg_free_list, ptr noundef nonnull %2) #6
  %62 = getelementptr inbounds i8, ptr %0, i64 272
  %63 = load i64, ptr %62, align 8
  %64 = add i64 %63, -1
  store i64 %64, ptr %62, align 8
  br label %65

65:                                               ; preds = %37, %60, %56, %48
  %.0 = phi i32 [ -1, %48 ], [ -1, %56 ], [ 0, %60 ], [ 0, %37 ]
  ret i32 %.0
}